; Function Attrs: mustprogress uwtable
define internal void @_ZNK3tsi12_GLOBAL__N_122BoringSslCachedSession11CopySessionEv(ptr noalias nocapture writeonly sret(%"class.std::unique_ptr.2") align 8 %agg.result, ptr nocapture noundef nonnull readonly align 8 dereferenceable(16) %this) unnamed_addr #0 align 2 personality ptr @__gxx_personality_v0 {
entry:
  %session_ = getelementptr inbounds i8, ptr %this, i64 8
  %0 = load ptr, ptr %session_, align 8
  %call2 = tail call i32 @SSL_SESSION_up_ref(ptr noundef %0)
  %1 = load ptr, ptr %session_, align 8
  store ptr %1, ptr %agg.result, align 8
  ret void
}